(dp1
S'tel'
p2
(dp3
S'type'
p4
S'string'
p5
sS'sortable'
p6
I4
sS'sql'
p7
S'CHAR(512)'
p8
ssS'tele'
p9
(dp10
S'type'
p11
S'string'
p12
sS'sortable'
p13
I4
sS'sql'
p14
S'CHAR(512)'
p15
ssS'email'
p16
(dp17
g11
g12
sg13
I3
sg14
S'CHAR(512)'
p18
ssS'name'
p19
(dp20
g11
g12
sg13
I2
sg14
S'CHAR(512)'
p21
ssS'id'
p22
(dp23
g11
S'id'
p24
sg13
I1
sg14
S'INTEGER PRIMARY KEY AUTOINCREMENT'
p25
ss.