(dp1
S'tel'
p2
(dp3
S'type'
p4
S'string'
p5
sS'sortable'
p6
I4
sS'sql'
p7
S'CHAR(512)'
p8
ssS'tele'
p9
(dp10
S'type'
p11
S'string'
p12
sS'sortable'
p13
I4
sS'sql'
p14
S'CHAR(512)'
p15
ssS'id'
p16
(dp17
g11
S'id'
p18
sg13
I1
sg14
S'INTEGER PRIMARY KEY AUTOINCREMENT'
p19
ssS'name'
p20
(dp21
g11
g12
sg13
I2
sg14
S'CHAR(512) NOT NULL'
p22
ssS'email'
p23
(dp24
g11
g12
sg13
I3
sg14
S'CHAR(512) NOT NULL UNIQUE'
p25
ss.